; Function Attrs: mustprogress uwtable
define hidden noundef ptr @_ZN18OpenImageIO_v2_6_03pvt27parallel_convert_from_floatEPKfPvmNS_8TypeDescE(ptr noundef %src, ptr noundef %dst, i64 noundef %nvals, ptr nocapture noundef readonly %format) local_unnamed_addr #5 personality ptr @__gxx_personality_v0 {
entry:
  %ref.tmp = alloca %"class.std::function", align 8
  %agg.tmp = alloca %"class.OpenImageIO_v2_6_0::paropt", align 8
  %0 = load i8, ptr %format, align 4
  %cmp = icmp eq i8 %0, 11
  br i1 %cmp, label %return, label %if.end

if.end:                                           ; preds = %entry
  %aggregate3.i = getelementptr inbounds i8, ptr %format, i64 1
  %1 = load i8, ptr %aggregate3.i, align 1
  %vecsemantics4.i = getelementptr inbounds i8, ptr %format, i64 2
  %2 = load i8, ptr %vecsemantics4.i, align 2
  %arraylen5.i = getelementptr inbounds i8, ptr %format, i64 4
  %3 = load i32, ptr %arraylen5.i, align 4
  %_M_manager.i.i = getelementptr inbounds i8, ptr %ref.tmp, i64 16
  %_M_invoker.i = getelementptr inbounds i8, ptr %ref.tmp, i64 24
  %4 = getelementptr inbounds i8, ptr %ref.tmp, i64 8
  store i64 0, ptr %4, align 8
  %call.i.i2.i = tail call noalias noundef nonnull dereferenceable(24) ptr @_Znwm(i64 noundef 24) #38
  store ptr %src, ptr %call.i.i2.i, align 8
  %ref.tmp1.sroa.2.0.call.i.i2.i.sroa_idx = getelementptr inbounds i8, ptr %call.i.i2.i, i64 8
  store ptr %dst, ptr %ref.tmp1.sroa.2.0.call.i.i2.i.sroa_idx, align 8
  %5 = getelementptr inbounds i8, ptr %call.i.i2.i, i64 16
  store i8 %0, ptr %5, align 4
  %aggregate.i.i.i.i.i = getelementptr inbounds i8, ptr %call.i.i2.i, i64 17
  store i8 %1, ptr %aggregate.i.i.i.i.i, align 1
  %vecsemantics.i.i.i.i.i = getelementptr inbounds i8, ptr %call.i.i2.i, i64 18
  store i8 %2, ptr %vecsemantics.i.i.i.i.i, align 2
  %reserved.i.i.i.i.i = getelementptr inbounds i8, ptr %call.i.i2.i, i64 19
  store i8 0, ptr %reserved.i.i.i.i.i, align 1
  %arraylen.i.i.i.i.i = getelementptr inbounds i8, ptr %call.i.i2.i, i64 20
  store i32 %3, ptr %arraylen.i.i.i.i.i, align 4
  store ptr %call.i.i2.i, ptr %ref.tmp, align 8
  store ptr @"_ZNSt17_Function_handlerIFvllEZN18OpenImageIO_v2_6_03pvt27parallel_convert_from_floatEPKfPvmNS1_8TypeDescEE3$_0E9_M_invokeERKSt9_Any_dataOlSC_", ptr %_M_invoker.i, align 8
  store ptr @"_ZNSt17_Function_handlerIFvllEZN18OpenImageIO_v2_6_03pvt27parallel_convert_from_floatEPKfPvmNS1_8TypeDescEE3$_0E10_M_managerERSt9_Any_dataRKS9_St18_Manager_operation", ptr %_M_manager.i.i, align 8
  store i32 0, ptr %agg.tmp, align 8
  %m_strategy.i = getelementptr inbounds i8, ptr %agg.tmp, i64 4
  store i16 0, ptr %m_strategy.i, align 4
  %m_splitdir.i = getelementptr inbounds i8, ptr %agg.tmp, i64 6
  store i16 1, ptr %m_splitdir.i, align 2
  %m_minitems.i = getelementptr inbounds i8, ptr %agg.tmp, i64 8
  store i64 1, ptr %m_minitems.i, align 8
  %m_pool.i = getelementptr inbounds i8, ptr %agg.tmp, i64 16
  store ptr null, ptr %m_pool.i, align 8
  %m_recursive.i = getelementptr inbounds i8, ptr %agg.tmp, i64 24
  store i8 0, ptr %m_recursive.i, align 8
  invoke void @_ZN18OpenImageIO_v2_6_020parallel_for_chunkedElllOSt8functionIFvllEENS_6paroptE(i64 noundef 0, i64 noundef %nvals, i64 noundef 0, ptr noundef nonnull align 8 dereferenceable(32) %ref.tmp, ptr noundef nonnull byval(%"class.OpenImageIO_v2_6_0::paropt") align 8 %agg.tmp)
          to label %invoke.cont unwind label %lpad

invoke.cont:                                      ; preds = %if.end
  %6 = load ptr, ptr %_M_manager.i.i, align 8
  %tobool.not.i.i = icmp eq ptr %6, null
  br i1 %tobool.not.i.i, label %return, label %if.then.i.i

if.then.i.i:                                      ; preds = %invoke.cont
  %call.i.i = invoke noundef zeroext i1 %6(ptr noundef nonnull align 8 dereferenceable(16) %ref.tmp, ptr noundef nonnull align 8 dereferenceable(16) %ref.tmp, i32 noundef 3)
          to label %return unwind label %terminate.lpad.i.i

terminate.lpad.i.i:                               ; preds = %if.then.i.i
  %7 = landingpad { ptr, i32 }
          catch ptr null
  %8 = extractvalue { ptr, i32 } %7, 0
  call void @__clang_call_terminate(ptr %8) #34
  unreachable

lpad:                                             ; preds = %if.end
  %9 = landingpad { ptr, i32 }
          cleanup
  %10 = load ptr, ptr %_M_manager.i.i, align 8
  %tobool.not.i.i5 = icmp eq ptr %10, null
  br i1 %tobool.not.i.i5, label %_ZNSt8functionIFvllEED2Ev.exit9, label %if.then.i.i6

if.then.i.i6:                                     ; preds = %lpad
  %call.i.i7 = invoke noundef zeroext i1 %10(ptr noundef nonnull align 8 dereferenceable(16) %ref.tmp, ptr noundef nonnull align 8 dereferenceable(16) %ref.tmp, i32 noundef 3)
          to label %_ZNSt8functionIFvllEED2Ev.exit9 unwind label %terminate.lpad.i.i8

terminate.lpad.i.i8:                              ; preds = %if.then.i.i6
  %11 = landingpad { ptr, i32 }
          catch ptr null
  %12 = extractvalue { ptr, i32 } %11, 0
  call void @__clang_call_terminate(ptr %12) #34
  unreachable

_ZNSt8functionIFvllEED2Ev.exit9:                  ; preds = %lpad, %if.then.i.i6
  resume { ptr, i32 } %9

return:                                           ; preds = %if.then.i.i, %invoke.cont, %entry
  %retval.0 = phi ptr [ %src, %entry ], [ %dst, %invoke.cont ], [ %dst, %if.then.i.i ]
  ret ptr %retval.0
}